; Function Attrs: nounwind uwtable
define internal ptr @sys__get_cpu_count_config(ptr readnone captures(none) %0, ptr readnone captures(none) %1) #0 {
  %3 = tail call ptr @_Py_GetConfig() #15
  %4 = getelementptr inbounds nuw i8, ptr %3, i64 268
  %5 = load i32, ptr %4, align 4, !tbaa !293
  %6 = icmp eq i32 %5, -1
  br i1 %6, label %7, label %9

7:                                                ; preds = %2
  %8 = tail call ptr @PyErr_Occurred() #15
  %.not = icmp eq ptr %8, null
  br i1 %.not, label %9, label %12

9:                                                ; preds = %7, %2
  %10 = sext i32 %5 to i64
  %11 = tail call ptr @PyLong_FromLong(i64 noundef %10) #15
  br label %12

12:                                               ; preds = %7, %9
  %.0 = phi ptr [ null, %7 ], [ %11, %9 ]
  ret ptr %.0
}